target datalayout = "e-m:e-p270:32:32-p271:32:32-p272:64:64-i64:64-i128:128-f80:128-n8:16:32:64-S128"
target triple = "x86_64-pc-linux-gnu"

@.str.5 = private unnamed_addr constant [28 x i8] c"%s: %s(%u) extension %s %s.\00", align 1
@.str.6 = private unnamed_addr constant [25 x i8] c"%s: %s(%u) extension %s.\00", align 1
@.str.7 = private unnamed_addr constant [22 x i8] c"%s: %s(%u) extension.\00", align 1
@.str.135 = private unnamed_addr constant [12 x i8] c"ClientHello\00", align 1
@.str.136 = private unnamed_addr constant [12 x i8] c"ServerHello\00", align 1
@.str.137 = private unnamed_addr constant [18 x i8] c"HelloRetryRequest\00", align 1
@.str.138 = private unnamed_addr constant [17 x i8] c"NewSessionTicket\00", align 1
@.str.139 = private unnamed_addr constant [20 x i8] c"EncryptedExtensions\00", align 1
@.str.140 = private unnamed_addr constant [12 x i8] c"Certificate\00", align 1
@.str.141 = private unnamed_addr constant [19 x i8] c"CertificateRequest\00", align 1
@.str.142 = private unnamed_addr constant [8 x i8] c"Unknown\00", align 1

; Function Attrs: nounwind uwtable
define hidden ptr @mbedtls_ssl_get_extension_name(i32 noundef %0) #0 {
  %2 = alloca i32, align 4
  store i32 %0, ptr %2, align 4, !tbaa !10
  %3 = load i32, ptr %2, align 4, !tbaa !10
  %4 = call i32 @mbedtls_ssl_get_extension_id(i32 noundef %3)
  %5 = zext i32 %4 to i64
  %6 = getelementptr inbounds nuw [29 x ptr], ptr @extension_name_table, i64 0, i64 %5
  %7 = load ptr, ptr %6, align 8, !tbaa !29
  ret ptr %7
}

; Function Attrs: nounwind uwtable
define internal ptr @ssl_tls13_get_hs_msg_name(i32 noundef %0) #0 {
  %2 = alloca ptr, align 8
  %3 = alloca i32, align 4
  store i32 %0, ptr %3, align 4, !tbaa !10
  %4 = load i32, ptr %3, align 4, !tbaa !10
  switch i32 %4, label %12 [
    i32 1, label %5
    i32 2, label %6
    i32 -2, label %7
    i32 4, label %8
    i32 8, label %9
    i32 11, label %10
    i32 13, label %11
  ]

5:                                                ; preds = %1
  store ptr @.str.135, ptr %2, align 8
  br label %13

6:                                                ; preds = %1
  store ptr @.str.136, ptr %2, align 8
  br label %13

7:                                                ; preds = %1
  store ptr @.str.137, ptr %2, align 8
  br label %13

8:                                                ; preds = %1
  store ptr @.str.138, ptr %2, align 8
  br label %13

9:                                                ; preds = %1
  store ptr @.str.139, ptr %2, align 8
  br label %13

10:                                               ; preds = %1
  store ptr @.str.140, ptr %2, align 8
  br label %13

11:                                               ; preds = %1
  store ptr @.str.141, ptr %2, align 8
  br label %13

12:                                               ; preds = %1
  store ptr @.str.142, ptr %2, align 8
  br label %13

13:                                               ; preds = %12, %11, %10, %9, %8, %7, %6, %5
  %14 = load ptr, ptr %2, align 8
  ret ptr %14
}

; Function Attrs: nounwind uwtable
define hidden void @mbedtls_ssl_print_extension(ptr noundef %0, i32 noundef %1, ptr noundef %2, i32 noundef %3, i32 noundef %4, i32 noundef %5, ptr noundef %6, ptr noundef %7) #0 {
  %9 = alloca ptr, align 8
  %10 = alloca i32, align 4
  %11 = alloca ptr, align 8
  %12 = alloca i32, align 4
  %13 = alloca i32, align 4
  %14 = alloca i32, align 4
  %15 = alloca ptr, align 8
  %16 = alloca ptr, align 8
  %17 = alloca ptr, align 8
  %18 = alloca i32, align 4
  store ptr %0, ptr %9, align 8, !tbaa !27
  store i32 %1, ptr %10, align 4, !tbaa !10
  store ptr %2, ptr %11, align 8, !tbaa !29
  store i32 %3, ptr %12, align 4, !tbaa !10
  store i32 %4, ptr %13, align 4, !tbaa !10
  store i32 %5, ptr %14, align 4, !tbaa !10
  store ptr %6, ptr %15, align 8, !tbaa !29
  store ptr %7, ptr %16, align 8, !tbaa !29
  call void @llvm.lifetime.start.p0(i64 8, ptr %17) #11
  %19 = load ptr, ptr %15, align 8, !tbaa !29
  %20 = icmp ne ptr %19, null
  br i1 %20, label %21, label %36

21:                                               ; preds = %8
  %22 = load ptr, ptr %16, align 8, !tbaa !29
  %23 = icmp ne ptr %22, null
  br i1 %23, label %24, label %36

24:                                               ; preds = %21
  %25 = load ptr, ptr %9, align 8, !tbaa !27
  %26 = load i32, ptr %10, align 4, !tbaa !10
  %27 = load ptr, ptr %11, align 8, !tbaa !29
  %28 = load i32, ptr %12, align 4, !tbaa !10
  %29 = load i32, ptr %13, align 4, !tbaa !10
  %30 = call ptr @ssl_tls13_get_hs_msg_name(i32 noundef %29)
  %31 = load i32, ptr %14, align 4, !tbaa !10
  %32 = call ptr @mbedtls_ssl_get_extension_name(i32 noundef %31)
  %33 = load i32, ptr %14, align 4, !tbaa !10
  %34 = load ptr, ptr %15, align 8, !tbaa !29
  %35 = load ptr, ptr %16, align 8, !tbaa !29
  call void (ptr, i32, ptr, i32, ptr, ...) @mbedtls_debug_print_msg(ptr noundef %25, i32 noundef %26, ptr noundef %27, i32 noundef %28, ptr noundef @.str.5, ptr noundef %30, ptr noundef %32, i32 noundef %33, ptr noundef %34, ptr noundef %35)
  store i32 1, ptr %18, align 4
  br label %68

36:                                               ; preds = %21, %8
  %37 = load ptr, ptr %15, align 8, !tbaa !29
  %38 = icmp ne ptr %37, null
  br i1 %38, label %39, label %41

39:                                               ; preds = %36
  %40 = load ptr, ptr %15, align 8, !tbaa !29
  br label %43

41:                                               ; preds = %36
  %42 = load ptr, ptr %16, align 8, !tbaa !29
  br label %43

43:                                               ; preds = %41, %39
  %44 = phi ptr [ %40, %39 ], [ %42, %41 ]
  store ptr %44, ptr %17, align 8, !tbaa !29
  %45 = load ptr, ptr %17, align 8, !tbaa !29
  %46 = icmp ne ptr %45, null
  br i1 %46, label %47, label %58

47:                                               ; preds = %43
  %48 = load ptr, ptr %9, align 8, !tbaa !27
  %49 = load i32, ptr %10, align 4, !tbaa !10
  %50 = load ptr, ptr %11, align 8, !tbaa !29
  %51 = load i32, ptr %12, align 4, !tbaa !10
  %52 = load i32, ptr %13, align 4, !tbaa !10
  %53 = call ptr @ssl_tls13_get_hs_msg_name(i32 noundef %52)
  %54 = load i32, ptr %14, align 4, !tbaa !10
  %55 = call ptr @mbedtls_ssl_get_extension_name(i32 noundef %54)
  %56 = load i32, ptr %14, align 4, !tbaa !10
  %57 = load ptr, ptr %17, align 8, !tbaa !29
  call void (ptr, i32, ptr, i32, ptr, ...) @mbedtls_debug_print_msg(ptr noundef %48, i32 noundef %49, ptr noundef %50, i32 noundef %51, ptr noundef @.str.6, ptr noundef %53, ptr noundef %55, i32 noundef %56, ptr noundef %57)
  store i32 1, ptr %18, align 4
  br label %68

58:                                               ; preds = %43
  %59 = load ptr, ptr %9, align 8, !tbaa !27
  %60 = load i32, ptr %10, align 4, !tbaa !10
  %61 = load ptr, ptr %11, align 8, !tbaa !29
  %62 = load i32, ptr %12, align 4, !tbaa !10
  %63 = load i32, ptr %13, align 4, !tbaa !10
  %64 = call ptr @ssl_tls13_get_hs_msg_name(i32 noundef %63)
  %65 = load i32, ptr %14, align 4, !tbaa !10
  %66 = call ptr @mbedtls_ssl_get_extension_name(i32 noundef %65)
  %67 = load i32, ptr %14, align 4, !tbaa !10
  call void (ptr, i32, ptr, i32, ptr, ...) @mbedtls_debug_print_msg(ptr noundef %59, i32 noundef %60, ptr noundef %61, i32 noundef %62, ptr noundef @.str.7, ptr noundef %64, ptr noundef %66, i32 noundef %67)
  store i32 0, ptr %18, align 4
  br label %68

68:                                               ; preds = %58, %47, %24
  call void @llvm.lifetime.end.p0(i64 8, ptr %17) #11
  %69 = load i32, ptr %18, align 4
  switch i32 %69, label %71 [
    i32 0, label %70
    i32 1, label %70
  ]

70:                                               ; preds = %68, %68
  ret void

71:                                               ; preds = %68
  unreachable
}