; Function Attrs: nounwind uwtable
define hidden void @mbedtls_ssl_print_extension(ptr noundef %0, i32 noundef %1, ptr noundef %2, i32 noundef %3, i32 noundef %4, i32 noundef %5, ptr noundef %6, ptr noundef %7) local_unnamed_addr #1 {
  %9 = icmp ne ptr %6, null
  %10 = icmp ne ptr %7, null
  %or.cond = and i1 %9, %10
  br i1 %or.cond, label %11, label %18

11:                                               ; preds = %8
  %switch.tableidx = add i32 %4, 2
  %12 = icmp ult i32 %switch.tableidx, 16
  br i1 %12, label %switch.lookup, label %ssl_tls13_get_hs_msg_name.exit

switch.lookup:                                    ; preds = %11
  %13 = zext nneg i32 %switch.tableidx to i64
  %switch.gep = getelementptr inbounds nuw [16 x ptr], ptr @switch.table.mbedtls_ssl_print_extension.19, i64 0, i64 %13
  %switch.load = load ptr, ptr %switch.gep, align 8
  br label %ssl_tls13_get_hs_msg_name.exit

ssl_tls13_get_hs_msg_name.exit:                   ; preds = %11, %switch.lookup
  %.0.i = phi ptr [ %switch.load, %switch.lookup ], [ @.str.142, %11 ]
  %14 = tail call i32 @mbedtls_ssl_get_extension_id(i32 noundef %5)
  %15 = zext nneg i32 %14 to i64
  %16 = getelementptr inbounds nuw [29 x ptr], ptr @extension_name_table, i64 0, i64 %15
  %17 = load ptr, ptr %16, align 8, !tbaa !64
  tail call void (ptr, i32, ptr, i32, ptr, ...) @mbedtls_debug_print_msg(ptr noundef %0, i32 noundef %1, ptr noundef %2, i32 noundef %3, ptr noundef nonnull @.str.5, ptr noundef nonnull %.0.i, ptr noundef %17, i32 noundef %5, ptr noundef nonnull %6, ptr noundef nonnull %7) #26
  br label %33

18:                                               ; preds = %8
  %19 = select i1 %9, ptr %6, ptr %7
  %.not = icmp eq ptr %19, null
  %switch.tableidx41 = add i32 %4, 2
  %20 = icmp ult i32 %switch.tableidx41, 16
  br i1 %.not, label %27, label %21

21:                                               ; preds = %18
  br i1 %20, label %switch.lookup36, label %ssl_tls13_get_hs_msg_name.exit33

switch.lookup36:                                  ; preds = %21
  %22 = zext nneg i32 %switch.tableidx41 to i64
  %switch.gep38 = getelementptr inbounds nuw [16 x ptr], ptr @switch.table.mbedtls_ssl_print_extension.19, i64 0, i64 %22
  %switch.load39 = load ptr, ptr %switch.gep38, align 8
  br label %ssl_tls13_get_hs_msg_name.exit33

ssl_tls13_get_hs_msg_name.exit33:                 ; preds = %21, %switch.lookup36
  %.0.i32 = phi ptr [ %switch.load39, %switch.lookup36 ], [ @.str.142, %21 ]
  %23 = tail call i32 @mbedtls_ssl_get_extension_id(i32 noundef %5)
  %24 = zext nneg i32 %23 to i64
  %25 = getelementptr inbounds nuw [29 x ptr], ptr @extension_name_table, i64 0, i64 %24
  %26 = load ptr, ptr %25, align 8, !tbaa !64
  tail call void (ptr, i32, ptr, i32, ptr, ...) @mbedtls_debug_print_msg(ptr noundef %0, i32 noundef %1, ptr noundef %2, i32 noundef %3, ptr noundef nonnull @.str.6, ptr noundef nonnull %.0.i32, ptr noundef %26, i32 noundef %5, ptr noundef nonnull %19) #26
  br label %33

27:                                               ; preds = %18
  br i1 %20, label %switch.lookup40, label %ssl_tls13_get_hs_msg_name.exit35

switch.lookup40:                                  ; preds = %27
  %28 = zext nneg i32 %switch.tableidx41 to i64
  %switch.gep42 = getelementptr inbounds nuw [16 x ptr], ptr @switch.table.mbedtls_ssl_print_extension.19, i64 0, i64 %28
  %switch.load43 = load ptr, ptr %switch.gep42, align 8
  br label %ssl_tls13_get_hs_msg_name.exit35

ssl_tls13_get_hs_msg_name.exit35:                 ; preds = %27, %switch.lookup40
  %.0.i34 = phi ptr [ %switch.load43, %switch.lookup40 ], [ @.str.142, %27 ]
  %29 = tail call i32 @mbedtls_ssl_get_extension_id(i32 noundef %5)
  %30 = zext nneg i32 %29 to i64
  %31 = getelementptr inbounds nuw [29 x ptr], ptr @extension_name_table, i64 0, i64 %30
  %32 = load ptr, ptr %31, align 8, !tbaa !64
  tail call void (ptr, i32, ptr, i32, ptr, ...) @mbedtls_debug_print_msg(ptr noundef %0, i32 noundef %1, ptr noundef %2, i32 noundef %3, ptr noundef nonnull @.str.7, ptr noundef nonnull %.0.i34, ptr noundef %32, i32 noundef %5) #26
  br label %33

33:                                               ; preds = %ssl_tls13_get_hs_msg_name.exit35, %ssl_tls13_get_hs_msg_name.exit33, %ssl_tls13_get_hs_msg_name.exit
  ret void
}